; Function Attrs: mustprogress uwtable
define hidden noundef i32 @_ZNK4cvc58internal6theory5arith6linear26FCSimplexDecisionProcedure22degeneratePivotsInARowEv(ptr nocapture noundef nonnull readonly align 8 dereferenceable(648) %this) local_unnamed_addr #3 align 2 personality ptr @__gxx_personality_v0 {
entry:
  %ref.tmp = alloca %"class.cvc5::internal::FatalStream", align 1
  %ref.tmp6 = alloca %"class.cvc5::internal::FatalStream", align 1
  %d_prevWitnessImprovement = getelementptr inbounds i8, ptr %this, i64 460
  %0 = load i32, ptr %d_prevWitnessImprovement, align 4
  switch i32 %0, label %sw.epilog [
    i32 0, label %return
    i32 1, label %return
    i32 2, label %return
    i32 6, label %sw.bb2
    i32 5, label %sw.bb2
    i32 4, label %sw.bb3
    i32 3, label %sw.bb3
    i32 7, label %sw.bb3
  ]

sw.bb2:                                           ; preds = %entry, %entry
  %d_witnessImprovementInARow = getelementptr inbounds i8, ptr %this, i64 464
  %1 = load i32, ptr %d_witnessImprovementInARow, align 8
  br label %return

sw.bb3:                                           ; preds = %entry, %entry, %entry
  call void @_ZN4cvc58internal11FatalStreamC1EPKcS3_i(ptr noundef nonnull align 1 dereferenceable(1) %ref.tmp, ptr noundef nonnull @__PRETTY_FUNCTION__._ZNK4cvc58internal6theory5arith6linear26FCSimplexDecisionProcedure22degeneratePivotsInARowEv, ptr noundef nonnull @.str.18, i32 noundef 180)
  %call = invoke noundef nonnull align 8 dereferenceable(8) ptr @_ZN4cvc58internal11FatalStream6streamEv(ptr noundef nonnull align 1 dereferenceable(1) %ref.tmp)
          to label %invoke.cont unwind label %lpad

invoke.cont:                                      ; preds = %sw.bb3
  %call5 = invoke noundef nonnull align 8 dereferenceable(8) ptr @_ZStlsISt11char_traitsIcEERSt13basic_ostreamIcT_ES5_PKc(ptr noundef nonnull align 8 dereferenceable(8) %call, ptr noundef nonnull @.str.19)
          to label %invoke.cont4 unwind label %lpad

invoke.cont4:                                     ; preds = %invoke.cont
  call void @_ZN4cvc58internal11FatalStreamD1Ev(ptr noundef nonnull align 1 dereferenceable(1) %ref.tmp) #23
  unreachable

lpad:                                             ; preds = %invoke.cont, %sw.bb3
  %2 = landingpad { ptr, i32 }
          cleanup
  call void @_ZN4cvc58internal11FatalStreamD1Ev(ptr noundef nonnull align 1 dereferenceable(1) %ref.tmp) #23
  unreachable

sw.epilog:                                        ; preds = %entry
  call void @_ZN4cvc58internal11FatalStreamC1EPKcS3_i(ptr noundef nonnull align 1 dereferenceable(1) %ref.tmp6, ptr noundef nonnull @__PRETTY_FUNCTION__._ZNK4cvc58internal6theory5arith6linear26FCSimplexDecisionProcedure22degeneratePivotsInARowEv, ptr noundef nonnull @.str.18, i32 noundef 183)
  %call9 = invoke noundef nonnull align 8 dereferenceable(8) ptr @_ZN4cvc58internal11FatalStream6streamEv(ptr noundef nonnull align 1 dereferenceable(1) %ref.tmp6)
          to label %invoke.cont8 unwind label %lpad7

invoke.cont8:                                     ; preds = %sw.epilog
  %call11 = invoke noundef nonnull align 8 dereferenceable(8) ptr @_ZStlsISt11char_traitsIcEERSt13basic_ostreamIcT_ES5_PKc(ptr noundef nonnull align 8 dereferenceable(8) %call9, ptr noundef nonnull @.str.19)
          to label %invoke.cont10 unwind label %lpad7

invoke.cont10:                                    ; preds = %invoke.cont8
  call void @_ZN4cvc58internal11FatalStreamD1Ev(ptr noundef nonnull align 1 dereferenceable(1) %ref.tmp6) #23
  unreachable

lpad7:                                            ; preds = %invoke.cont8, %sw.epilog
  %3 = landingpad { ptr, i32 }
          cleanup
  call void @_ZN4cvc58internal11FatalStreamD1Ev(ptr noundef nonnull align 1 dereferenceable(1) %ref.tmp6) #23
  unreachable

return:                                           ; preds = %entry, %entry, %entry, %sw.bb2
  %retval.0 = phi i32 [ %1, %sw.bb2 ], [ 0, %entry ], [ 0, %entry ], [ 0, %entry ]
  ret i32 %retval.0
}